; Function Attrs: nounwind uwtable
define internal i32 @kdf_pvk_get_ctx_params(ptr readnone captures(none) %0, ptr noundef %1) #0 {
  %3 = tail call ptr @OSSL_PARAM_locate(ptr noundef %1, ptr noundef nonnull @.str.6) #5
  %.not = icmp eq ptr %3, null
  br i1 %.not, label %6, label %4

4:                                                ; preds = %2
  %5 = tail call i32 @OSSL_PARAM_set_size_t(ptr noundef nonnull %3, i64 noundef -1) #5
  br label %6

6:                                                ; preds = %2, %4
  %.0 = phi i32 [ %5, %4 ], [ -2, %2 ]
  ret i32 %.0
}